Modules list:
-------------
main.o:
    CODE              Offs=000000  Size=0006E5  Align=00001  Fill=0000
    RODATA            Offs=000000  Size=00008F  Align=00001  Fill=0000
    BSS               Offs=000000  Size=000032  Align=00001  Fill=0000
    DATA              Offs=000000  Size=00100F  Align=00001  Fill=0000
kernal.o:
    CODE              Offs=0006E5  Size=000042  Align=00001  Fill=0000
../../build/lib/os.lib(_directerrno.o):
    CODE              Offs=000727  Size=00000A  Align=00001  Fill=0000
../../build/lib/os.lib(_heap.o):
    DATA              Offs=00100F  Size=00000A  Align=00001  Fill=0000
    ONCE              Offs=000000  Size=000010  Align=00001  Fill=0000
../../build/lib/os.lib(_heapmaxavail.o):
    CODE              Offs=000731  Size=000053  Align=00001  Fill=0000
../../build/lib/os.lib(_hextab.o):
    RODATA            Offs=00008F  Size=000010  Align=00001  Fill=0000
../../build/lib/os.lib(_longminstr.o):
    RODATA            Offs=00009F  Size=00000C  Align=00001  Fill=0000
../../build/lib/os.lib(_oserror.o):
    BSS               Offs=000032  Size=000001  Align=00001  Fill=0000
../../build/lib/os.lib(_printf.o):
    CODE              Offs=000784  Size=0003A5  Align=00001  Fill=0000
    BSS               Offs=000033  Size=00002B  Align=00001  Fill=0000
    DATA              Offs=001019  Size=000003  Align=00001  Fill=0000
../../build/lib/os.lib(_seterrno.o):
    CODE              Offs=000B29  Size=000009  Align=00001  Fill=0000
../../build/lib/os.lib(add.o):
    CODE              Offs=000B32  Size=00001C  Align=00001  Fill=0000
../../build/lib/os.lib(addeqsp.o):
    CODE              Offs=000B4E  Size=000011  Align=00001  Fill=0000
../../build/lib/os.lib(addysp.o):
    CODE              Offs=000B5F  Size=00000E  Align=00001  Fill=0000
../../build/lib/os.lib(aslax1.o):
    CODE              Offs=000B6D  Size=000008  Align=00001  Fill=0000
../../build/lib/os.lib(aslax3.o):
    CODE              Offs=000B75  Size=00000E  Align=00001  Fill=0000
../../build/lib/os.lib(aslax4.o):
    CODE              Offs=000B83  Size=000011  Align=00001  Fill=0000
../../build/lib/os.lib(axlong.o):
    CODE              Offs=000B94  Size=00000D  Align=00001  Fill=0000
../../build/lib/os.lib(bneg.o):
    CODE              Offs=000BA1  Size=00000E  Align=00001  Fill=0000
../../build/lib/os.lib(condes.o):
    CODE              Offs=000BAF  Size=00000C  Align=00001  Fill=0000
    DATA              Offs=00101C  Size=000025  Align=00001  Fill=0000
    ONCE              Offs=000010  Size=00000C  Align=00001  Fill=0000
../../build/lib/os.lib(crt0.o):
    STARTUP           Offs=000000  Size=000012  Align=00001  Fill=0000
../../build/lib/os.lib(ctype.o):
    RODATA            Offs=0000AB  Size=000100  Align=00001  Fill=0000
../../build/lib/os.lib(decsp4.o):
    CODE              Offs=000BBB  Size=00000D  Align=00001  Fill=0000
../../build/lib/os.lib(decsp6.o):
    CODE              Offs=000BC8  Size=00000D  Align=00001  Fill=0000
../../build/lib/os.lib(eq.o):
    CODE              Offs=000BD5  Size=00000A  Align=00001  Fill=0000
../../build/lib/os.lib(errno.o):
    BSS               Offs=00005E  Size=000002  Align=00001  Fill=0000
../../build/lib/os.lib(icmp.o):
    CODE              Offs=000BDF  Size=00002E  Align=00001  Fill=0000
../../build/lib/os.lib(incsp1.o):
    CODE              Offs=000C0D  Size=000007  Align=00001  Fill=0000
../../build/lib/os.lib(incsp2.o):
    CODE              Offs=000C14  Size=000016  Align=00001  Fill=0000
../../build/lib/os.lib(incsp4.o):
    CODE              Offs=000C2A  Size=000005  Align=00001  Fill=0000
../../build/lib/os.lib(incsp5.o):
    CODE              Offs=000C2F  Size=000005  Align=00001  Fill=0000
../../build/lib/os.lib(incsp6.o):
    CODE              Offs=000C34  Size=000005  Align=00001  Fill=0000
../../build/lib/os.lib(ldaui.o):
    CODE              Offs=000C39  Size=000009  Align=00001  Fill=0000
../../build/lib/os.lib(ldaxsp.o):
    CODE              Offs=000C42  Size=000009  Align=00001  Fill=0000
../../build/lib/os.lib(lneg.o):
    CODE              Offs=000C4B  Size=00001E  Align=00001  Fill=0000
../../build/lib/os.lib(lpush.o):
    CODE              Offs=000C69  Size=000021  Align=00001  Fill=0000
../../build/lib/os.lib(ltoa.o):
    CODE              Offs=000C8A  Size=000095  Align=00001  Fill=0000
../../build/lib/os.lib(makebool.o):
    CODE              Offs=000D1F  Size=00002C  Align=00001  Fill=0000
../../build/lib/os.lib(memcpy.o):
    CODE              Offs=000D4B  Size=00003C  Align=00001  Fill=0000
../../build/lib/os.lib(memset.o):
    CODE              Offs=000D87  Size=00005D  Align=00001  Fill=0000
../../build/lib/os.lib(mod.o):
    CODE              Offs=000DE4  Size=000011  Align=00001  Fill=0000
../../build/lib/os.lib(negabs.o):
    CODE              Offs=000DF5  Size=000012  Align=00001  Fill=0000
../../build/lib/os.lib(popptr1.o):
    CODE              Offs=000E07  Size=00000E  Align=00001  Fill=0000
../../build/lib/os.lib(push1.o):
    CODE              Offs=000E15  Size=000005  Align=00001  Fill=0000
../../build/lib/os.lib(pusha.o):
    CODE              Offs=000E1A  Size=000016  Align=00001  Fill=0000
../../build/lib/os.lib(pushax.o):
    CODE              Offs=000E30  Size=00001A  Align=00001  Fill=0000
../../build/lib/os.lib(pushwsp.o):
    CODE              Offs=000E4A  Size=00001C  Align=00001  Fill=0000
../../build/lib/os.lib(rand.o):
    CODE              Offs=000E66  Size=00004A  Align=00001  Fill=0000
    DATA              Offs=001041  Size=000004  Align=00001  Fill=0000
../../build/lib/os.lib(shelp.o):
    CODE              Offs=000EB0  Size=000020  Align=00001  Fill=0000
../../build/lib/os.lib(shrax1.o):
    CODE              Offs=000ED0  Size=000008  Align=00001  Fill=0000
../../build/lib/os.lib(sprintf.o):
    CODE              Offs=000ED8  Size=00002B  Align=00001  Fill=0000
    BSS               Offs=000060  Size=000001  Align=00001  Fill=0000
../../build/lib/os.lib(staspidx.o):
    CODE              Offs=000F03  Size=000016  Align=00001  Fill=0000
../../build/lib/os.lib(staxsp.o):
    CODE              Offs=000F19  Size=00000B  Align=00001  Fill=0000
../../build/lib/os.lib(strlen.o):
    CODE              Offs=000F24  Size=000016  Align=00001  Fill=0000
../../build/lib/os.lib(strlower.o):
    CODE              Offs=000F3A  Size=000028  Align=00001  Fill=0000
../../build/lib/os.lib(sub.o):
    CODE              Offs=000F62  Size=000015  Align=00001  Fill=0000
../../build/lib/os.lib(udiv.o):
    CODE              Offs=000F77  Size=00004F  Align=00001  Fill=0000
../../build/lib/os.lib(vsnprintf.o):
    CODE              Offs=000FC6  Size=0000DA  Align=00001  Fill=0000
    DATA              Offs=001045  Size=000008  Align=00001  Fill=0000
../../build/lib/os.lib(vsprintf.o):
    CODE              Offs=0010A0  Size=000012  Align=00001  Fill=0000
../../build/lib/os.lib(zerobss.o):
    CODE              Offs=0010B2  Size=000023  Align=00001  Fill=0000
../../build/lib/os.lib(zeropage.o):
    ZEROPAGE          Offs=000000  Size=0000DF  Align=00001  Fill=0000


Segment list:
-------------
Name                   Start     End    Size  Align
----------------------------------------------------
ZEROPAGE              000000  0000DE  0000DF  00001
BSS                   000B00  000B60  000061  00001
STARTUP               001000  001013  000014  00001
ONCE                  001014  00102F  00001C  00001
CODE                  001030  002104  0010D5  00001
DATA                  002105  003151  00104D  00001
RODATA                003152  0032FC  0001AB  00001


Exports list by name:
---------------------
__BSS_RUN__               000B00 RLA    __BSS_SIZE__              000061 REA    
__CONSTRUCTOR_COUNT__     000001 REA    __CONSTRUCTOR_TABLE__     001012 RLA    
__DESTRUCTOR_COUNT__      000000 REA    __DESTRUCTOR_TABLE__      001014 RLA    
__RAM_SIZE__              006F00 REA    __RAM_START__             001000 RLA    
__STACKSIZE__             000200 REA    __STARTUP__               000001 REA    
__ctype                   0031FD RLA    __directerrno             001757 RLA    
__errno                   000B5E RLA    __heapend                 003118 RLA    
__heapfirst               00311A RLA    __heapmaxavail            001761 RLA    
__heapptr                 003116 RLA    __hextab                  0031E1 RLA    
__longminstr              0031F1 RLA    __oserror                 000B32 RLA    
__printf                  0018A7 RLA    __seterrno                001B59 RLA    
_cgetc_nw                 00172D RLA    _cputs                    00172A RLA    
_ltoa                     001CD2 RLA    _main                     0016D4 RLA    
_memcpy                   001D7B RLA    _memset                   001DBF RLA    
_rand                     001E96 RLA    _sprintf                  001F08 RLA    
_srand                    001ED1 RLA    _strlen                   001F54 RLA    
_strlower                 001F6A RLA    _ultoa                    001D13 RLA    
_vdp_flush                001748 RLA    _vdp_init_g2              00173C RLA    
_vdp_read_from_screen_xy  00174E RLA    _vdp_set_write_address    00173F RLA    
_vdp_wait                 001745 RLA    _vdp_write_to_screen_xy   00174B RLA    
_vsprintf                 0020D0 RLA    addeqysp                  001B80 RLA    
addysp                    001B90 RLA    addysp1                   001B8F RLA    
axlong                    001BC4 RLA    axulong                   001BCA RLA    
bnega                     001BD5 RLA    booleq                    001D55 RLA    
boolne                    001D4F RLA    boolult                   001D6E RLA    
decsp4                    001BEB RLA    decsp6                    001BF8 RLA    
incsp1                    001C3D RLA    incsp2                    001C4C RLA    
incsp4                    001C5A RLA    incsp5                    001C5F RLA    
incsp6                    001C64 RLA    initheap                  001014  LAI   
initlib                   001024 RLA    ldauidx                   001C69 RLA    
ldaxysp                   001C74 RLA    negax                     001E29 RLA    
negeax                    001C7B RLA    popax                     001C44 RLA    
popptr1                   001E37 RLA    popsargsudiv16            001EE0 RLA    
ptr1                      000008 RLZ    ptr2                      00000A RLZ    
ptr3                      00000C RLZ    ptr4                      00000E RLZ    
push1                     001E45 RLA    pusha                     001E4E RLA    
pusha0                    001E62 RLA    pushax                    001E64 RLA    
pusheax                   001CA2 RLA    pushw0sp                  001E7A RLA    
regbank                   000014 RLZ    shlax1                    001B9D RLA    
shlax3                    001BA5 RLA    shlax4                    001BB3 RLA    
shrax1                    001F00 RLA    sp                        000000 RLZ    
sreg                      000002 RLZ    staspidx                  001F33 RLA    
staxysp                   001F4B RLA    tmp1                      000010 RLZ    
tmp2                      000011 RLZ    tosaddax                  001B64 RLA    
toseqax                   001C09 RLA    tosicmp                   001C11 RLA    
tosmodax                  001E16 RLA    tossubax                  001F94 RLA    
udiv16                    001FB8 RLA    vsnprintf                 001FF9 RLA    
zerobss                   0020E2 RLA    


Exports list by value:
----------------------
__DESTRUCTOR_COUNT__      000000 REA    sp                        000000 RLZ    
__CONSTRUCTOR_COUNT__     000001 REA    __STARTUP__               000001 REA    
sreg                      000002 RLZ    ptr1                      000008 RLZ    
ptr2                      00000A RLZ    ptr3                      00000C RLZ    
ptr4                      00000E RLZ    tmp1                      000010 RLZ    
tmp2                      000011 RLZ    regbank                   000014 RLZ    
__BSS_SIZE__              000061 REA    __STACKSIZE__             000200 REA    
__BSS_RUN__               000B00 RLA    __oserror                 000B32 RLA    
__errno                   000B5E RLA    __RAM_START__             001000 RLA    
__CONSTRUCTOR_TABLE__     001012 RLA    __DESTRUCTOR_TABLE__      001014 RLA    
initheap                  001014  LAI   initlib                   001024 RLA    
_main                     0016D4 RLA    _cputs                    00172A RLA    
_cgetc_nw                 00172D RLA    _vdp_init_g2              00173C RLA    
_vdp_set_write_address    00173F RLA    _vdp_wait                 001745 RLA    
_vdp_flush                001748 RLA    _vdp_write_to_screen_xy   00174B RLA    
_vdp_read_from_screen_xy  00174E RLA    __directerrno             001757 RLA    
__heapmaxavail            001761 RLA    __printf                  0018A7 RLA    
__seterrno                001B59 RLA    tosaddax                  001B64 RLA    
addeqysp                  001B80 RLA    addysp1                   001B8F RLA    
addysp                    001B90 RLA    shlax1                    001B9D RLA    
shlax3                    001BA5 RLA    shlax4                    001BB3 RLA    
axlong                    001BC4 RLA    axulong                   001BCA RLA    
bnega                     001BD5 RLA    decsp4                    001BEB RLA    
decsp6                    001BF8 RLA    toseqax                   001C09 RLA    
tosicmp                   001C11 RLA    incsp1                    001C3D RLA    
popax                     001C44 RLA    incsp2                    001C4C RLA    
incsp4                    001C5A RLA    incsp5                    001C5F RLA    
incsp6                    001C64 RLA    ldauidx                   001C69 RLA    
ldaxysp                   001C74 RLA    negeax                    001C7B RLA    
pusheax                   001CA2 RLA    _ltoa                     001CD2 RLA    
_ultoa                    001D13 RLA    boolne                    001D4F RLA    
booleq                    001D55 RLA    boolult                   001D6E RLA    
_memcpy                   001D7B RLA    _memset                   001DBF RLA    
tosmodax                  001E16 RLA    negax                     001E29 RLA    
popptr1                   001E37 RLA    push1                     001E45 RLA    
pusha                     001E4E RLA    pusha0                    001E62 RLA    
pushax                    001E64 RLA    pushw0sp                  001E7A RLA    
_rand                     001E96 RLA    _srand                    001ED1 RLA    
popsargsudiv16            001EE0 RLA    shrax1                    001F00 RLA    
_sprintf                  001F08 RLA    staspidx                  001F33 RLA    
staxysp                   001F4B RLA    _strlen                   001F54 RLA    
_strlower                 001F6A RLA    tossubax                  001F94 RLA    
udiv16                    001FB8 RLA    vsnprintf                 001FF9 RLA    
_vsprintf                 0020D0 RLA    zerobss                   0020E2 RLA    
__heapptr                 003116 RLA    __heapend                 003118 RLA    
__heapfirst               00311A RLA    __hextab                  0031E1 RLA    
__longminstr              0031F1 RLA    __ctype                   0031FD RLA    
__RAM_SIZE__              006F00 REA    


Imports list:
-------------
__BSS_RUN__ ([linker generated]):
    _heap.o                   common/_heap.s(8)
    zerobss.o                 common/zerobss.s(8)
__BSS_SIZE__ ([linker generated]):
    _heap.o                   common/_heap.s(8)
    zerobss.o                 common/zerobss.s(8)
__CONSTRUCTOR_COUNT__ ([linker generated]):
    condes.o                  runtime/condes.s(18)
__CONSTRUCTOR_TABLE__ ([linker generated]):
    condes.o                  runtime/condes.s(18)
__DESTRUCTOR_COUNT__ ([linker generated]):
    condes.o                  runtime/condes.s(19)
__DESTRUCTOR_TABLE__ ([linker generated]):
    condes.o                  runtime/condes.s(19)
__RAM_SIZE__ ([linker generated]):
    crt0.o                    lib/crt0.s(3)
__RAM_START__ ([linker generated]):
    crt0.o                    lib/crt0.s(3)
__STACKSIZE__ ([linker generated]):
    _heap.o                   common/_heap.s(8)
__STARTUP__ (crt0.o):
    main.o                    main.s(13)
__ctype (ctype.o):
    strlower.o                common/strlower.s(13)
__directerrno (_directerrno.o):
    vsnprintf.o               /build/cc65-cMn3ks/cc65-2.18/asminc/errno.inc(10)
__errno (errno.o):
    _seterrno.o               /build/cc65-cMn3ks/cc65-2.18/asminc/errno.inc(7)
__heapend (_heap.o):
    _heapmaxavail.o           /build/cc65-cMn3ks/cc65-2.18/asminc/_heap.inc(33)
__heapfirst (_heap.o):
    _heapmaxavail.o           /build/cc65-cMn3ks/cc65-2.18/asminc/_heap.inc(34)
__heapmaxavail (_heapmaxavail.o):
    main.o                    main.s(15)
__heapptr (_heap.o):
    _heapmaxavail.o           /build/cc65-cMn3ks/cc65-2.18/asminc/_heap.inc(32)
__hextab (_hextab.o):
    ltoa.o                    common/ltoa.s(10)
__longminstr (_longminstr.o):
    ltoa.o                    common/ltoa.s(10)
__oserror (_oserror.o):
    _directerrno.o            /build/cc65-cMn3ks/cc65-2.18/asminc/errno.inc(7)
__printf (_printf.o):
    vsnprintf.o               common/vsnprintf.s(10)
__seterrno (_seterrno.o):
    _directerrno.o            /build/cc65-cMn3ks/cc65-2.18/asminc/errno.inc(9)
_cgetc_nw (kernal.o):
    main.o                    main.s(27)
_cputs (kernal.o):
    main.o                    main.s(26)
_ltoa (ltoa.o):
    _printf.o                 common/_printf.s(12)
_main (main.o):
    crt0.o                    lib/crt0.s(3)
_memcpy (memcpy.o):
    vsnprintf.o               common/vsnprintf.s(10)
_memset (memset.o):
    main.o                    main.s(19)
_rand (rand.o):
    main.o                    main.s(16)
_sprintf (sprintf.o):
    main.o                    main.s(14)
_srand (rand.o):
    main.o                    main.s(17)
_strlen (strlen.o):
    _printf.o                 common/_printf.s(13)
    main.o                    main.s(18)
_strlower (strlower.o):
    _printf.o                 common/_printf.s(13)
_ultoa (ltoa.o):
    _printf.o                 common/_printf.s(12)
_vdp_flush (kernal.o):
    main.o                    main.s(23)
_vdp_init_g2 (kernal.o):
    main.o                    main.s(20)
_vdp_read_from_screen_xy (kernal.o):
    main.o                    main.s(25)
_vdp_set_write_address (kernal.o):
    main.o                    main.s(21)
_vdp_wait (kernal.o):
    main.o                    main.s(22)
_vdp_write_to_screen_xy (kernal.o):
    main.o                    main.s(24)
_vsprintf (vsprintf.o):
    sprintf.o                 common/sprintf.s(8)
addeqysp (addeqsp.o):
    main.o                    main.s(949)
addysp (addysp.o):
    incsp6.o                  runtime/incsp6.s(8)
    sprintf.o                 common/sprintf.s(8)
    incsp5.o                  runtime/incsp5.s(8)
    incsp4.o                  runtime/incsp4.s(8)
addysp1 (addysp.o):
    sub.o                     runtime/sub.s(8)
axlong (axlong.o):
    _printf.o                 common/_printf.s(11)
axulong (axlong.o):
    _printf.o                 common/_printf.s(11)
bnega (bneg.o):
    main.o                    main.s(949)
booleq (makebool.o):
    eq.o                      runtime/eq.s(8)
    main.o                    main.s(949)
    main.o                    main.s(949)
    main.o                    main.s(949)
boolne (makebool.o):
    main.o                    main.s(949)
    main.o                    main.s(949)
boolult (makebool.o):
    main.o                    main.s(949)
    main.o                    main.s(949)
decsp4 (decsp4.o):
    lpush.o                   runtime/lpush.s(12)
    sprintf.o                 common/sprintf.s(8)
decsp6 (decsp6.o):
    _printf.o                 common/_printf.s(11)
incsp1 (incsp1.o):
    main.o                    main.s(949)
incsp2 (incsp2.o):
    vsnprintf.o               common/vsnprintf.s(9)
    popptr1.o                 runtime/popptr1.s(8)
    staspidx.o                runtime/staspidx.s(8)
    main.o                    main.s(949)
incsp4 (incsp4.o):
    main.o                    main.s(949)
incsp5 (incsp5.o):
    main.o                    main.s(949)
incsp6 (incsp6.o):
    vsnprintf.o               common/vsnprintf.s(9)
initlib (condes.o):
    crt0.o                    lib/crt0.s(7)
ldauidx (ldaui.o):
    main.o                    main.s(949)
    main.o                    main.s(949)
ldaxysp (ldaxsp.o):
    vsnprintf.o               common/vsnprintf.s(9)
    main.o                    main.s(949)
    main.o                    main.s(949)
negax (negabs.o):
    shelp.o                   runtime/shelp.s(11)
    mod.o                     runtime/mod.s(11)
negeax (lneg.o):
    ltoa.o                    common/ltoa.s(9)
popax (incsp2.o):
    memcpy.o                  common/memcpy.s(14)
    ltoa.o                    common/ltoa.s(9)
    _printf.o                 common/_printf.s(11)
    vsnprintf.o               common/vsnprintf.s(9)
    shelp.o                   runtime/shelp.s(11)
    memset.o                  common/memset.s(19)
popptr1 (popptr1.o):
    memcpy.o                  common/memcpy.s(14)
    ltoa.o                    common/ltoa.s(9)
    udiv.o                    runtime/udiv.s(9)
popsargsudiv16 (shelp.o):
    mod.o                     runtime/mod.s(11)
ptr1 (zeropage.o):
    strlower.o                common/strlower.s(14)
    memcpy.o                  common/memcpy.s(15)
    ltoa.o                    common/ltoa.s(11)
    _printf.o                 /build/cc65-cMn3ks/cc65-2.18/asminc/zeropage.inc(12)
    vsnprintf.o               common/vsnprintf.s(11)
    popptr1.o                 runtime/popptr1.s(9)
    zerobss.o                 common/zerobss.s(9)
    udiv.o                    runtime/udiv.s(10)
    staspidx.o                runtime/staspidx.s(9)
    sprintf.o                 common/sprintf.s(9)
    shelp.o                   runtime/shelp.s(12)
    memset.o                  common/memset.s(20)
    ldaui.o                   runtime/ldaui.s(8)
    _heapmaxavail.o           common/_heapmaxavail.s(10)
ptr2 (zeropage.o):
    strlower.o                common/strlower.s(14)
    memcpy.o                  common/memcpy.s(15)
    ltoa.o                    common/ltoa.s(11)
    _printf.o                 /build/cc65-cMn3ks/cc65-2.18/asminc/zeropage.inc(12)
    strlen.o                  common/strlen.s(12)
    memset.o                  common/memset.s(20)
    _heapmaxavail.o           common/_heapmaxavail.s(10)
ptr3 (zeropage.o):
    memcpy.o                  common/memcpy.s(15)
    ltoa.o                    common/ltoa.s(11)
    memset.o                  common/memset.s(20)
ptr4 (zeropage.o):
    udiv.o                    runtime/udiv.s(10)
    shelp.o                   runtime/shelp.s(12)
push1 (push1.o):
    _printf.o                 common/_printf.s(11)
pusha (pusha.o):
    main.o                    main.s(949)
    main.o                    main.s(949)
    main.o                    main.s(949)
    main.o                    main.s(949)
    main.o                    main.s(949)
    main.o                    main.s(949)
pusha0 (pushax.o):
    push1.o                   runtime/push1.s(8)
pushax (pushax.o):
    _printf.o                 common/_printf.s(11)
    main.o                    main.s(949)
    main.o                    main.s(949)
    main.o                    main.s(949)
    main.o                    main.s(949)
    main.o                    main.s(949)
    main.o                    main.s(949)
    main.o                    main.s(949)
    main.o                    main.s(949)
pusheax (lpush.o):
    _printf.o                 common/_printf.s(11)
pushw0sp (pushwsp.o):
    vsprintf.o                common/vsprintf.s(8)
regbank (zeropage.o):
    _printf.o                 /build/cc65-cMn3ks/cc65-2.18/asminc/zeropage.inc(14)
shlax1 (aslax1.o):
    main.o                    main.s(949)
shlax3 (aslax3.o):
    main.o                    main.s(949)
shlax4 (aslax4.o):
    main.o                    main.s(949)
shrax1 (shrax1.o):
    main.o                    main.s(949)
sp (zeropage.o):
    memcpy.o                  common/memcpy.s(15)
    lpush.o                   runtime/lpush.s(13)
    decsp6.o                  runtime/decsp6.s(8)
    _printf.o                 /build/cc65-cMn3ks/cc65-2.18/asminc/zeropage.inc(11)
    vsnprintf.o               common/vsnprintf.s(11)
    staxsp.o                  runtime/staxsp.s(8)
    pushwsp.o                 runtime/pushwsp.s(8)
    popptr1.o                 runtime/popptr1.s(9)
    decsp4.o                  runtime/decsp4.s(8)
    addysp.o                  runtime/addysp.s(8)
    _heap.o                   common/_heap.s(9)
    sub.o                     runtime/sub.s(9)
    staspidx.o                runtime/staspidx.s(9)
    sprintf.o                 common/sprintf.s(9)
    pushax.o                  runtime/pushax.s(8)
    pusha.o                   runtime/pusha.s(8)
    memset.o                  common/memset.s(20)
    ldaxsp.o                  runtime/ldaxsp.s(8)
    incsp2.o                  runtime/incsp2.s(8)
    incsp1.o                  runtime/incsp1.s(8)
    icmp.o                    runtime/icmp.s(9)
    crt0.o                    inc/zeropage.inc(1)
    addeqsp.o                 runtime/addeqsp.s(8)
    add.o                     runtime/add.s(12)
    main.o                    main.s(10)
sreg (zeropage.o):
    lneg.o                    runtime/lneg.s(11)
    ltoa.o                    common/ltoa.s(11)
    lpush.o                   runtime/lpush.s(13)
    axlong.o                  runtime/axlong.s(9)
    _printf.o                 /build/cc65-cMn3ks/cc65-2.18/asminc/zeropage.inc(11)
    udiv.o                    runtime/udiv.s(10)
    mod.o                     runtime/mod.s(12)
    icmp.o                    runtime/icmp.s(9)
staspidx (staspidx.o):
    main.o                    main.s(949)
    main.o                    main.s(949)
staxysp (staxsp.o):
    vsprintf.o                common/vsprintf.s(8)
tmp1 (zeropage.o):
    ltoa.o                    common/ltoa.s(11)
    _printf.o                 /build/cc65-cMn3ks/cc65-2.18/asminc/zeropage.inc(13)
    staspidx.o                runtime/staspidx.s(9)
    shrax1.o                  runtime/shrax1.s(8)
    shelp.o                   runtime/shelp.s(12)
    mod.o                     runtime/mod.s(12)
    aslax4.o                  runtime/aslax4.s(8)
    aslax3.o                  runtime/aslax3.s(8)
    aslax1.o                  runtime/aslax1.s(8)
    add.o                     runtime/add.s(12)
tmp2 (zeropage.o):
    shelp.o                   runtime/shelp.s(12)
tosaddax (add.o):
    main.o                    main.s(949)
    main.o                    main.s(949)
toseqax (eq.o):
    main.o                    main.s(949)
tosicmp (icmp.o):
    eq.o                      runtime/eq.s(8)
tosmodax (mod.o):
    main.o                    main.s(949)
tossubax (sub.o):
    main.o                    main.s(949)
udiv16 (udiv.o):
    shelp.o                   runtime/shelp.s(11)
vsnprintf (vsnprintf.o):
    vsprintf.o                common/vsprintf.s(9)
zerobss (zerobss.o):
    crt0.o                    lib/crt0.s(7)

